target datalayout = "e-m:e-p270:32:32-p271:32:32-p272:64:64-i64:64-i128:128-f80:128-n8:16:32:64-S128"
target triple = "x86_64-pc-linux-gnu"

%struct.TupleTableSlot = type { i32, i16, i16, ptr, ptr, ptr, ptr, ptr, %struct.ItemPointerData, i32 }
%struct.ItemPointerData = type { %struct.BlockIdData, i16 }
%struct.BlockIdData = type { i16, i16 }
%struct.TupleDescData = type { i32, i32, i32, i32, ptr, [0 x %struct.CompactAttribute] }
%struct.CompactAttribute = type { i32, i16, i8, i8, i8, i8, i8, i8, i8 }
%struct.TupleConstr = type { ptr, ptr, ptr, i16, i16, i8, i8, i8 }
%struct.AttrMissing = type { i8, i64 }

; Function Attrs: nounwind uwtable
define dso_local void @slot_getmissingattrs(ptr noundef %0, i32 noundef %1, i32 noundef %2) #0 {
  %4 = alloca ptr, align 8
  %5 = alloca i32, align 4
  %6 = alloca i32, align 4
  %7 = alloca ptr, align 8
  %8 = alloca i32, align 4
  store ptr %0, ptr %4, align 8
  store i32 %1, ptr %5, align 4
  store i32 %2, ptr %6, align 4
  call void @llvm.lifetime.start.p0(i64 8, ptr %7) #10
  store ptr null, ptr %7, align 8
  %9 = load ptr, ptr %4, align 8
  %10 = getelementptr inbounds nuw %struct.TupleTableSlot, ptr %9, i32 0, i32 4
  %11 = load ptr, ptr %10, align 8
  %12 = getelementptr inbounds nuw %struct.TupleDescData, ptr %11, i32 0, i32 4
  %13 = load ptr, ptr %12, align 8
  %14 = icmp ne ptr %13, null
  br i1 %14, label %15, label %23

15:                                               ; preds = %3
  %16 = load ptr, ptr %4, align 8
  %17 = getelementptr inbounds nuw %struct.TupleTableSlot, ptr %16, i32 0, i32 4
  %18 = load ptr, ptr %17, align 8
  %19 = getelementptr inbounds nuw %struct.TupleDescData, ptr %18, i32 0, i32 4
  %20 = load ptr, ptr %19, align 8
  %21 = getelementptr inbounds nuw %struct.TupleConstr, ptr %20, i32 0, i32 2
  %22 = load ptr, ptr %21, align 8
  store ptr %22, ptr %7, align 8
  br label %23

23:                                               ; preds = %15, %3
  %24 = load ptr, ptr %7, align 8
  %25 = icmp ne ptr %24, null
  br i1 %25, label %49, label %26

26:                                               ; preds = %23
  %27 = load ptr, ptr %4, align 8
  %28 = getelementptr inbounds nuw %struct.TupleTableSlot, ptr %27, i32 0, i32 5
  %29 = load ptr, ptr %28, align 8
  %30 = load i32, ptr %5, align 4
  %31 = sext i32 %30 to i64
  %32 = getelementptr inbounds i64, ptr %29, i64 %31
  %33 = load i32, ptr %6, align 4
  %34 = load i32, ptr %5, align 4
  %35 = sub i32 %33, %34
  %36 = sext i32 %35 to i64
  %37 = mul i64 %36, 8
  call void @llvm.memset.p0.i64(ptr align 8 %32, i8 0, i64 %37, i1 false)
  %38 = load ptr, ptr %4, align 8
  %39 = getelementptr inbounds nuw %struct.TupleTableSlot, ptr %38, i32 0, i32 6
  %40 = load ptr, ptr %39, align 8
  %41 = load i32, ptr %5, align 4
  %42 = sext i32 %41 to i64
  %43 = getelementptr inbounds i8, ptr %40, i64 %42
  %44 = load i32, ptr %6, align 4
  %45 = load i32, ptr %5, align 4
  %46 = sub i32 %44, %45
  %47 = sext i32 %46 to i64
  %48 = mul i64 %47, 1
  call void @llvm.memset.p0.i64(ptr align 1 %43, i8 1, i64 %48, i1 false)
  br label %87

49:                                               ; preds = %23
  call void @llvm.lifetime.start.p0(i64 4, ptr %8) #10
  %50 = load i32, ptr %5, align 4
  store i32 %50, ptr %8, align 4
  br label %51

51:                                               ; preds = %83, %49
  %52 = load i32, ptr %8, align 4
  %53 = load i32, ptr %6, align 4
  %54 = icmp slt i32 %52, %53
  br i1 %54, label %55, label %86

55:                                               ; preds = %51
  %56 = load ptr, ptr %7, align 8
  %57 = load i32, ptr %8, align 4
  %58 = sext i32 %57 to i64
  %59 = getelementptr inbounds %struct.AttrMissing, ptr %56, i64 %58
  %60 = getelementptr inbounds nuw %struct.AttrMissing, ptr %59, i32 0, i32 1
  %61 = load i64, ptr %60, align 8
  %62 = load ptr, ptr %4, align 8
  %63 = getelementptr inbounds nuw %struct.TupleTableSlot, ptr %62, i32 0, i32 5
  %64 = load ptr, ptr %63, align 8
  %65 = load i32, ptr %8, align 4
  %66 = sext i32 %65 to i64
  %67 = getelementptr inbounds i64, ptr %64, i64 %66
  store i64 %61, ptr %67, align 8
  %68 = load ptr, ptr %7, align 8
  %69 = load i32, ptr %8, align 4
  %70 = sext i32 %69 to i64
  %71 = getelementptr inbounds %struct.AttrMissing, ptr %68, i64 %70
  %72 = getelementptr inbounds nuw %struct.AttrMissing, ptr %71, i32 0, i32 0
  %73 = load i8, ptr %72, align 8, !range !4, !noundef !5
  %74 = trunc i8 %73 to i1
  %75 = xor i1 %74, true
  %76 = load ptr, ptr %4, align 8
  %77 = getelementptr inbounds nuw %struct.TupleTableSlot, ptr %76, i32 0, i32 6
  %78 = load ptr, ptr %77, align 8
  %79 = load i32, ptr %8, align 4
  %80 = sext i32 %79 to i64
  %81 = getelementptr inbounds i8, ptr %78, i64 %80
  %82 = zext i1 %75 to i8
  store i8 %82, ptr %81, align 1
  br label %83

83:                                               ; preds = %55
  %84 = load i32, ptr %8, align 4
  %85 = add i32 %84, 1
  store i32 %85, ptr %8, align 4
  br label %51, !llvm.loop !12

86:                                               ; preds = %51
  call void @llvm.lifetime.end.p0(i64 4, ptr %8) #10
  br label %87

87:                                               ; preds = %86, %26
  call void @llvm.lifetime.end.p0(i64 8, ptr %7) #10
  ret void
}