; Function Attrs: nofree norecurse nosync nounwind memory(readwrite, inaccessiblemem: none) uwtable
define dso_local void @slot_getmissingattrs(ptr noundef readonly captures(none) %0, i32 noundef %1, i32 noundef %2) local_unnamed_addr #10 {
  %4 = getelementptr inbounds nuw i8, ptr %0, i64 16
  %5 = load ptr, ptr %4, align 8
  %6 = getelementptr inbounds nuw i8, ptr %5, i64 16
  %7 = load ptr, ptr %6, align 8
  %.not = icmp eq ptr %7, null
  br i1 %.not, label %.thread, label %8

8:                                                ; preds = %3
  %9 = getelementptr inbounds nuw i8, ptr %7, i64 16
  %10 = load ptr, ptr %9, align 8
  %.not24 = icmp eq ptr %10, null
  br i1 %.not24, label %.thread, label %.preheader

.preheader:                                       ; preds = %8
  %11 = icmp slt i32 %1, %2
  br i1 %11, label %.lr.ph, label %.loopexit

.lr.ph:                                           ; preds = %.preheader
  %12 = getelementptr inbounds nuw i8, ptr %0, i64 24
  %13 = getelementptr inbounds nuw i8, ptr %0, i64 32
  %14 = sext i32 %1 to i64
  %wide.trip.count = sext i32 %2 to i64
  br label %25

.thread:                                          ; preds = %3, %8
  %15 = getelementptr inbounds nuw i8, ptr %0, i64 24
  %16 = load ptr, ptr %15, align 8
  %17 = sext i32 %1 to i64
  %18 = getelementptr inbounds i64, ptr %16, i64 %17
  %19 = sub i32 %2, %1
  %20 = sext i32 %19 to i64
  %21 = shl nsw i64 %20, 3
  tail call void @llvm.memset.p0.i64(ptr align 8 %18, i8 0, i64 %21, i1 false)
  %22 = getelementptr inbounds nuw i8, ptr %0, i64 32
  %23 = load ptr, ptr %22, align 8
  %24 = getelementptr inbounds i8, ptr %23, i64 %17
  tail call void @llvm.memset.p0.i64(ptr align 1 %24, i8 1, i64 %20, i1 false)
  br label %.loopexit

25:                                               ; preds = %.lr.ph, %25
  %indvars.iv = phi i64 [ %14, %.lr.ph ], [ %indvars.iv.next, %25 ]
  %26 = getelementptr inbounds %struct.AttrMissing, ptr %10, i64 %indvars.iv
  %27 = getelementptr inbounds nuw i8, ptr %26, i64 8
  %28 = load i64, ptr %27, align 8
  %29 = load ptr, ptr %12, align 8
  %30 = getelementptr inbounds i64, ptr %29, i64 %indvars.iv
  store i64 %28, ptr %30, align 8
  %31 = load i8, ptr %26, align 8, !range !5, !noundef !6
  %32 = xor i8 %31, 1
  %33 = load ptr, ptr %13, align 8
  %34 = getelementptr inbounds i8, ptr %33, i64 %indvars.iv
  store i8 %32, ptr %34, align 1
  %indvars.iv.next = add nsw i64 %indvars.iv, 1
  %exitcond.not = icmp eq i64 %indvars.iv.next, %wide.trip.count
  br i1 %exitcond.not, label %.loopexit, label %25, !llvm.loop !13

.loopexit:                                        ; preds = %25, %.preheader, %.thread
  ret void
}